; Function Attrs: mustprogress uwtable
define hidden noundef ptr @pj_adams_hemi(ptr noundef %0) local_unnamed_addr #0 {
  %.not = icmp eq ptr %0, null
  br i1 %.not, label %11, label %2

2:                                                ; preds = %1
  %3 = tail call noalias dereferenceable_or_null(24) ptr @calloc(i64 noundef 1, i64 noundef 24) #7
  %4 = icmp eq ptr %3, null
  br i1 %4, label %5, label %7

5:                                                ; preds = %2
  %6 = tail call noundef ptr @_Z21pj_default_destructorP8PJconstsi(ptr noundef nonnull %0, i32 noundef 4096)
  br label %_Z39pj_projection_specific_setup_adams_hemiP8PJconsts.exit

7:                                                ; preds = %2
  %8 = getelementptr inbounds i8, ptr %0, i64 88
  store ptr %3, ptr %8, align 8
  %9 = getelementptr inbounds i8, ptr %0, i64 216
  store double 0.000000e+00, ptr %9, align 8
  %10 = getelementptr inbounds i8, ptr %0, i64 104
  store ptr @_ZL13adams_forward5PJ_LPP8PJconsts, ptr %10, align 8
  store i32 2, ptr %3, align 8
  br label %_Z39pj_projection_specific_setup_adams_hemiP8PJconsts.exit

11:                                               ; preds = %1
  %12 = tail call noundef ptr @_Z6pj_newv()
  %13 = icmp eq ptr %12, null
  br i1 %13, label %_Z39pj_projection_specific_setup_adams_hemiP8PJconsts.exit, label %14

14:                                               ; preds = %11
  %15 = getelementptr inbounds i8, ptr %12, i64 8
  store ptr @.str.2, ptr %15, align 8
  %16 = getelementptr inbounds i8, ptr %12, i64 16
  store ptr @_ZL14des_adams_hemi, ptr %16, align 8
  %17 = getelementptr inbounds i8, ptr %12, i64 360
  store i32 1, ptr %17, align 8
  %18 = getelementptr inbounds i8, ptr %12, i64 380
  store i32 4, ptr %18, align 4
  %19 = getelementptr inbounds i8, ptr %12, i64 384
  store i32 1, ptr %19, align 8
  br label %_Z39pj_projection_specific_setup_adams_hemiP8PJconsts.exit

_Z39pj_projection_specific_setup_adams_hemiP8PJconsts.exit: ; preds = %7, %5, %11, %14
  %.0 = phi ptr [ %12, %14 ], [ null, %11 ], [ %6, %5 ], [ %0, %7 ]
  ret ptr %.0
}